; Function Attrs: mustprogress nounwind uwtable
define internal fastcc void @_ZN6hermes12_GLOBAL__N_15GenJS13visitFuncLikeEbbPNS_6ESTree4NodeERN4llvh12simple_ilistIS3_JEEES4_S4_(ptr noundef nonnull align 8 captures(none) dereferenceable(16) %this, i1 noundef zeroext %async, i1 noundef zeroext %generator, ptr noundef %id, ptr noundef nonnull align 8 dereferenceable(16) %params, ptr noundef %body) unnamed_addr #0 align 2 {
entry:
  br i1 %async, label %if.then, label %if.end

if.then:                                          ; preds = %entry
  %0 = load ptr, ptr %this, align 8
  %OutBufEnd.i5.i = getelementptr inbounds nuw i8, ptr %0, i64 16
  %1 = load ptr, ptr %OutBufEnd.i5.i, align 8
  %OutBufCur.i6.i = getelementptr inbounds nuw i8, ptr %0, i64 24
  %2 = load ptr, ptr %OutBufCur.i6.i, align 8
  %sub.ptr.lhs.cast.i7.i = ptrtoint ptr %1 to i64
  %sub.ptr.rhs.cast.i8.i = ptrtoint ptr %2 to i64
  %sub.ptr.sub.i9.i = sub i64 %sub.ptr.lhs.cast.i7.i, %sub.ptr.rhs.cast.i8.i
  %cmp.i.i = icmp ult i64 %sub.ptr.sub.i9.i, 6
  br i1 %cmp.i.i, label %if.then.i.i, label %if.then4.i.i

if.then.i.i:                                      ; preds = %if.then
  %call3.i.i = tail call noundef nonnull align 8 dereferenceable(36) ptr @_ZN4llvh11raw_ostream5writeEPKcm(ptr noundef nonnull align 8 dereferenceable(36) %0, ptr noundef nonnull @.str.237, i64 noundef 6) #12
  br label %if.end

if.then4.i.i:                                     ; preds = %if.then
  tail call void @llvm.memcpy.p0.p0.i64(ptr noundef nonnull align 1 dereferenceable(6) %2, ptr noundef nonnull align 1 dereferenceable(6) @.str.237, i64 6, i1 false)
  %3 = load ptr, ptr %OutBufCur.i6.i, align 8
  %add.ptr.i.i = getelementptr inbounds nuw i8, ptr %3, i64 6
  store ptr %add.ptr.i.i, ptr %OutBufCur.i6.i, align 8
  br label %if.end

if.end:                                           ; preds = %if.then4.i.i, %if.then.i.i, %entry
  %4 = load ptr, ptr %this, align 8
  %OutBufEnd.i5.i9 = getelementptr inbounds nuw i8, ptr %4, i64 16
  %5 = load ptr, ptr %OutBufEnd.i5.i9, align 8
  %OutBufCur.i6.i10 = getelementptr inbounds nuw i8, ptr %4, i64 24
  %6 = load ptr, ptr %OutBufCur.i6.i10, align 8
  %sub.ptr.lhs.cast.i7.i11 = ptrtoint ptr %5 to i64
  %sub.ptr.rhs.cast.i8.i12 = ptrtoint ptr %6 to i64
  %sub.ptr.sub.i9.i13 = sub i64 %sub.ptr.lhs.cast.i7.i11, %sub.ptr.rhs.cast.i8.i12
  %cmp.i.i14 = icmp ult i64 %sub.ptr.sub.i9.i13, 8
  br i1 %cmp.i.i14, label %if.then.i.i20, label %if.then4.i.i17

if.then.i.i20:                                    ; preds = %if.end
  %call3.i.i21 = tail call noundef nonnull align 8 dereferenceable(36) ptr @_ZN4llvh11raw_ostream5writeEPKcm(ptr noundef nonnull align 8 dereferenceable(36) %4, ptr noundef nonnull @.str.238, i64 noundef 8) #12
  br label %_ZN4llvh11raw_ostreamlsEPKc.exit22

if.then4.i.i17:                                   ; preds = %if.end
  store i64 7957695015192261990, ptr %6, align 1
  %7 = load ptr, ptr %OutBufCur.i6.i10, align 8
  %add.ptr.i.i18 = getelementptr inbounds nuw i8, ptr %7, i64 8
  store ptr %add.ptr.i.i18, ptr %OutBufCur.i6.i10, align 8
  br label %_ZN4llvh11raw_ostreamlsEPKc.exit22

_ZN4llvh11raw_ostreamlsEPKc.exit22:               ; preds = %if.then.i.i20, %if.then4.i.i17
  br i1 %generator, label %if.then6, label %if.else

if.then6:                                         ; preds = %_ZN4llvh11raw_ostreamlsEPKc.exit22
  %8 = load ptr, ptr %this, align 8
  %OutBufCur.i = getelementptr inbounds nuw i8, ptr %8, i64 24
  %9 = load ptr, ptr %OutBufCur.i, align 8
  %OutBufEnd.i = getelementptr inbounds nuw i8, ptr %8, i64 16
  %10 = load ptr, ptr %OutBufEnd.i, align 8
  %cmp.not.i = icmp ult ptr %9, %10
  br i1 %cmp.not.i, label %if.end.i, label %if.then.i

if.then.i:                                        ; preds = %if.then6
  %call.i = tail call noundef nonnull align 8 dereferenceable(36) ptr @_ZN4llvh11raw_ostream5writeEh(ptr noundef nonnull align 8 dereferenceable(36) %8, i8 noundef zeroext 42) #12
  br label %_ZN4llvh11raw_ostreamlsEc.exit

if.end.i:                                         ; preds = %if.then6
  %incdec.ptr.i = getelementptr inbounds nuw i8, ptr %9, i64 1
  store ptr %incdec.ptr.i, ptr %OutBufCur.i, align 8
  store i8 42, ptr %9, align 1
  br label %_ZN4llvh11raw_ostreamlsEc.exit

_ZN4llvh11raw_ostreamlsEc.exit:                   ; preds = %if.then.i, %if.end.i
  %cond = icmp eq ptr %id, null
  br i1 %cond, label %if.end20, label %if.then10

if.then10:                                        ; preds = %_ZN4llvh11raw_ostreamlsEc.exit
  %11 = getelementptr inbounds nuw i8, ptr %this, i64 8
  %this.val7 = load i8, ptr %11, align 8
  %tobool2.i = trunc i8 %this.val7 to i1
  br i1 %tobool2.i, label %if.then.i24, label %if.then19

if.then.i24:                                      ; preds = %if.then10
  %this.val = load ptr, ptr %this, align 8
  %call.i25 = tail call noundef nonnull align 8 dereferenceable(36) ptr @_ZN4llvh11raw_ostream5writeEh(ptr noundef nonnull align 8 dereferenceable(36) %this.val, i8 noundef zeroext 32) #12
  br label %if.then19

if.else:                                          ; preds = %_ZN4llvh11raw_ostreamlsEPKc.exit22
  %cond6 = icmp eq ptr %id, null
  br i1 %cond6, label %if.end20, label %if.then13

if.then13:                                        ; preds = %if.else
  %12 = load ptr, ptr %this, align 8
  %OutBufCur.i26 = getelementptr inbounds nuw i8, ptr %12, i64 24
  %13 = load ptr, ptr %OutBufCur.i26, align 8
  %OutBufEnd.i27 = getelementptr inbounds nuw i8, ptr %12, i64 16
  %14 = load ptr, ptr %OutBufEnd.i27, align 8
  %cmp.not.i28 = icmp ult ptr %13, %14
  br i1 %cmp.not.i28, label %if.end.i32, label %if.then.i29

if.then.i29:                                      ; preds = %if.then13
  %call.i30 = tail call noundef nonnull align 8 dereferenceable(36) ptr @_ZN4llvh11raw_ostream5writeEh(ptr noundef nonnull align 8 dereferenceable(36) %12, i8 noundef zeroext 32) #12
  br label %if.then19

if.end.i32:                                       ; preds = %if.then13
  %incdec.ptr.i33 = getelementptr inbounds nuw i8, ptr %13, i64 1
  store ptr %incdec.ptr.i33, ptr %OutBufCur.i26, align 8
  store i8 32, ptr %13, align 1
  br label %if.then19

if.then19:                                        ; preds = %if.then10, %if.then.i24, %if.then.i29, %if.end.i32
  tail call fastcc void @_ZN6hermes6ESTree24RecursiveVisitorDispatchINS_12_GLOBAL__N_15GenJSELb1EE5visitERS3_PNS0_4NodeES7_(ptr noundef nonnull align 8 dereferenceable(16) %this, ptr noundef nonnull %id)
  br label %if.end20

if.end20:                                         ; preds = %if.else, %_ZN4llvh11raw_ostreamlsEc.exit, %if.then19
  tail call fastcc void @_ZN6hermes12_GLOBAL__N_15GenJS22visitFuncParamsAndBodyERN4llvh12simple_ilistINS_6ESTree4NodeEJEEEPS5_S8_(ptr noundef nonnull align 8 dereferenceable(16) %this, ptr noundef nonnull align 8 dereferenceable(16) %params, ptr noundef %body)
  ret void
}